target datalayout = "e-m:e-p270:32:32-p271:32:32-p272:64:64-i64:64-i128:128-f80:128-n8:16:32:64-S128"
target triple = "x86_64-pc-linux-gnu"

@.str = private unnamed_addr constant [5 x i8] c"ttcf\00", align 1
@.str.11 = private unnamed_addr constant [5 x i8] c"typ1\00", align 1
@.str.12 = private unnamed_addr constant [5 x i8] c"OTTO\00", align 1

; Function Attrs: mustprogress nounwind uwtable
define internal noundef i32 @_ZL6ttLONGPKh(ptr noundef %0) #1 {
  %2 = alloca ptr, align 8
  store ptr %0, ptr %2, align 8
  %3 = load ptr, ptr %2, align 8
  %4 = getelementptr inbounds i8, ptr %3, i64 0
  %5 = load i8, ptr %4, align 1
  %6 = zext i8 %5 to i32
  %7 = shl i32 %6, 24
  %8 = load ptr, ptr %2, align 8
  %9 = getelementptr inbounds i8, ptr %8, i64 1
  %10 = load i8, ptr %9, align 1
  %11 = zext i8 %10 to i32
  %12 = shl i32 %11, 16
  %13 = add nsw i32 %7, %12
  %14 = load ptr, ptr %2, align 8
  %15 = getelementptr inbounds i8, ptr %14, i64 2
  %16 = load i8, ptr %15, align 1
  %17 = zext i8 %16 to i32
  %18 = shl i32 %17, 8
  %19 = add nsw i32 %13, %18
  %20 = load ptr, ptr %2, align 8
  %21 = getelementptr inbounds i8, ptr %20, i64 3
  %22 = load i8, ptr %21, align 1
  %23 = zext i8 %22 to i32
  %24 = add nsw i32 %19, %23
  ret i32 %24
}

; Function Attrs: mustprogress nounwind uwtable
define internal noundef i32 @_ZL7ttULONGPKh(ptr noundef %0) #1 {
  %2 = alloca ptr, align 8
  store ptr %0, ptr %2, align 8
  %3 = load ptr, ptr %2, align 8
  %4 = getelementptr inbounds i8, ptr %3, i64 0
  %5 = load i8, ptr %4, align 1
  %6 = zext i8 %5 to i32
  %7 = shl i32 %6, 24
  %8 = load ptr, ptr %2, align 8
  %9 = getelementptr inbounds i8, ptr %8, i64 1
  %10 = load i8, ptr %9, align 1
  %11 = zext i8 %10 to i32
  %12 = shl i32 %11, 16
  %13 = add nsw i32 %7, %12
  %14 = load ptr, ptr %2, align 8
  %15 = getelementptr inbounds i8, ptr %14, i64 2
  %16 = load i8, ptr %15, align 1
  %17 = zext i8 %16 to i32
  %18 = shl i32 %17, 8
  %19 = add nsw i32 %13, %18
  %20 = load ptr, ptr %2, align 8
  %21 = getelementptr inbounds i8, ptr %20, i64 3
  %22 = load i8, ptr %21, align 1
  %23 = zext i8 %22 to i32
  %24 = add nsw i32 %19, %23
  ret i32 %24
}

; Function Attrs: mustprogress nounwind uwtable
define internal noundef i32 @_ZL13stbtt__isfontPKh(ptr noundef %0) #1 {
  %2 = alloca i32, align 4
  %3 = alloca ptr, align 8
  store ptr %0, ptr %3, align 8
  %4 = load ptr, ptr %3, align 8
  %5 = getelementptr inbounds i8, ptr %4, i64 0
  %6 = load i8, ptr %5, align 1
  %7 = zext i8 %6 to i32
  %8 = icmp eq i32 %7, 49
  br i1 %8, label %9, label %28

9:                                                ; preds = %1
  %10 = load ptr, ptr %3, align 8
  %11 = getelementptr inbounds i8, ptr %10, i64 1
  %12 = load i8, ptr %11, align 1
  %13 = zext i8 %12 to i32
  %14 = icmp eq i32 %13, 0
  br i1 %14, label %15, label %28

15:                                               ; preds = %9
  %16 = load ptr, ptr %3, align 8
  %17 = getelementptr inbounds i8, ptr %16, i64 2
  %18 = load i8, ptr %17, align 1
  %19 = zext i8 %18 to i32
  %20 = icmp eq i32 %19, 0
  br i1 %20, label %21, label %28

21:                                               ; preds = %15
  %22 = load ptr, ptr %3, align 8
  %23 = getelementptr inbounds i8, ptr %22, i64 3
  %24 = load i8, ptr %23, align 1
  %25 = zext i8 %24 to i32
  %26 = icmp eq i32 %25, 0
  br i1 %26, label %27, label %28

27:                                               ; preds = %21
  store i32 1, ptr %2, align 4
  br label %126

28:                                               ; preds = %21, %15, %9, %1
  %29 = load ptr, ptr %3, align 8
  %30 = getelementptr inbounds i8, ptr %29, i64 0
  %31 = load i8, ptr %30, align 1
  %32 = zext i8 %31 to i32
  %33 = load i8, ptr @.str.11, align 1
  %34 = sext i8 %33 to i32
  %35 = icmp eq i32 %32, %34
  br i1 %35, label %36, label %64

36:                                               ; preds = %28
  %37 = load ptr, ptr %3, align 8
  %38 = getelementptr inbounds i8, ptr %37, i64 1
  %39 = load i8, ptr %38, align 1
  %40 = zext i8 %39 to i32
  %41 = getelementptr inbounds [5 x i8], ptr @.str.11, i64 0, i64 1
  %42 = load i8, ptr %41, align 1
  %43 = sext i8 %42 to i32
  %44 = icmp eq i32 %40, %43
  br i1 %44, label %45, label %64

45:                                               ; preds = %36
  %46 = load ptr, ptr %3, align 8
  %47 = getelementptr inbounds i8, ptr %46, i64 2
  %48 = load i8, ptr %47, align 1
  %49 = zext i8 %48 to i32
  %50 = getelementptr inbounds [5 x i8], ptr @.str.11, i64 0, i64 2
  %51 = load i8, ptr %50, align 1
  %52 = sext i8 %51 to i32
  %53 = icmp eq i32 %49, %52
  br i1 %53, label %54, label %64

54:                                               ; preds = %45
  %55 = load ptr, ptr %3, align 8
  %56 = getelementptr inbounds i8, ptr %55, i64 3
  %57 = load i8, ptr %56, align 1
  %58 = zext i8 %57 to i32
  %59 = getelementptr inbounds [5 x i8], ptr @.str.11, i64 0, i64 3
  %60 = load i8, ptr %59, align 1
  %61 = sext i8 %60 to i32
  %62 = icmp eq i32 %58, %61
  br i1 %62, label %63, label %64

63:                                               ; preds = %54
  store i32 1, ptr %2, align 4
  br label %126

64:                                               ; preds = %54, %45, %36, %28
  %65 = load ptr, ptr %3, align 8
  %66 = getelementptr inbounds i8, ptr %65, i64 0
  %67 = load i8, ptr %66, align 1
  %68 = zext i8 %67 to i32
  %69 = load i8, ptr @.str.12, align 1
  %70 = sext i8 %69 to i32
  %71 = icmp eq i32 %68, %70
  br i1 %71, label %72, label %100

72:                                               ; preds = %64
  %73 = load ptr, ptr %3, align 8
  %74 = getelementptr inbounds i8, ptr %73, i64 1
  %75 = load i8, ptr %74, align 1
  %76 = zext i8 %75 to i32
  %77 = getelementptr inbounds [5 x i8], ptr @.str.12, i64 0, i64 1
  %78 = load i8, ptr %77, align 1
  %79 = sext i8 %78 to i32
  %80 = icmp eq i32 %76, %79
  br i1 %80, label %81, label %100

81:                                               ; preds = %72
  %82 = load ptr, ptr %3, align 8
  %83 = getelementptr inbounds i8, ptr %82, i64 2
  %84 = load i8, ptr %83, align 1
  %85 = zext i8 %84 to i32
  %86 = getelementptr inbounds [5 x i8], ptr @.str.12, i64 0, i64 2
  %87 = load i8, ptr %86, align 1
  %88 = sext i8 %87 to i32
  %89 = icmp eq i32 %85, %88
  br i1 %89, label %90, label %100

90:                                               ; preds = %81
  %91 = load ptr, ptr %3, align 8
  %92 = getelementptr inbounds i8, ptr %91, i64 3
  %93 = load i8, ptr %92, align 1
  %94 = zext i8 %93 to i32
  %95 = getelementptr inbounds [5 x i8], ptr @.str.12, i64 0, i64 3
  %96 = load i8, ptr %95, align 1
  %97 = sext i8 %96 to i32
  %98 = icmp eq i32 %94, %97
  br i1 %98, label %99, label %100

99:                                               ; preds = %90
  store i32 1, ptr %2, align 4
  br label %126

100:                                              ; preds = %90, %81, %72, %64
  %101 = load ptr, ptr %3, align 8
  %102 = getelementptr inbounds i8, ptr %101, i64 0
  %103 = load i8, ptr %102, align 1
  %104 = zext i8 %103 to i32
  %105 = icmp eq i32 %104, 0
  br i1 %105, label %106, label %125

106:                                              ; preds = %100
  %107 = load ptr, ptr %3, align 8
  %108 = getelementptr inbounds i8, ptr %107, i64 1
  %109 = load i8, ptr %108, align 1
  %110 = zext i8 %109 to i32
  %111 = icmp eq i32 %110, 1
  br i1 %111, label %112, label %125

112:                                              ; preds = %106
  %113 = load ptr, ptr %3, align 8
  %114 = getelementptr inbounds i8, ptr %113, i64 2
  %115 = load i8, ptr %114, align 1
  %116 = zext i8 %115 to i32
  %117 = icmp eq i32 %116, 0
  br i1 %117, label %118, label %125

118:                                              ; preds = %112
  %119 = load ptr, ptr %3, align 8
  %120 = getelementptr inbounds i8, ptr %119, i64 3
  %121 = load i8, ptr %120, align 1
  %122 = zext i8 %121 to i32
  %123 = icmp eq i32 %122, 0
  br i1 %123, label %124, label %125

124:                                              ; preds = %118
  store i32 1, ptr %2, align 4
  br label %126

125:                                              ; preds = %118, %112, %106, %100
  store i32 0, ptr %2, align 4
  br label %126

126:                                              ; preds = %125, %124, %99, %63, %27
  %127 = load i32, ptr %2, align 4
  ret i32 %127
}

; Function Attrs: mustprogress uwtable
define dso_local i32 @stbtt_GetFontOffsetForIndex(ptr noundef %0, i32 noundef %1) #0 {
  %3 = alloca i32, align 4
  %4 = alloca ptr, align 8
  %5 = alloca i32, align 4
  %6 = alloca i32, align 4
  store ptr %0, ptr %4, align 8
  store i32 %1, ptr %5, align 4
  %7 = load ptr, ptr %4, align 8
  %8 = call noundef i32 @_ZL13stbtt__isfontPKh(ptr noundef %7)
  %9 = icmp ne i32 %8, 0
  br i1 %9, label %10, label %14

10:                                               ; preds = %2
  %11 = load i32, ptr %5, align 4
  %12 = icmp eq i32 %11, 0
  %13 = select i1 %12, i32 0, i32 -1
  store i32 %13, ptr %3, align 4
  br label %77

14:                                               ; preds = %2
  %15 = load ptr, ptr %4, align 8
  %16 = getelementptr inbounds i8, ptr %15, i64 0
  %17 = load i8, ptr %16, align 1
  %18 = zext i8 %17 to i32
  %19 = load i8, ptr @.str, align 1
  %20 = sext i8 %19 to i32
  %21 = icmp eq i32 %18, %20
  br i1 %21, label %22, label %76

22:                                               ; preds = %14
  %23 = load ptr, ptr %4, align 8
  %24 = getelementptr inbounds i8, ptr %23, i64 1
  %25 = load i8, ptr %24, align 1
  %26 = zext i8 %25 to i32
  %27 = getelementptr inbounds [5 x i8], ptr @.str, i64 0, i64 1
  %28 = load i8, ptr %27, align 1
  %29 = sext i8 %28 to i32
  %30 = icmp eq i32 %26, %29
  br i1 %30, label %31, label %76

31:                                               ; preds = %22
  %32 = load ptr, ptr %4, align 8
  %33 = getelementptr inbounds i8, ptr %32, i64 2
  %34 = load i8, ptr %33, align 1
  %35 = zext i8 %34 to i32
  %36 = getelementptr inbounds [5 x i8], ptr @.str, i64 0, i64 2
  %37 = load i8, ptr %36, align 1
  %38 = sext i8 %37 to i32
  %39 = icmp eq i32 %35, %38
  br i1 %39, label %40, label %76

40:                                               ; preds = %31
  %41 = load ptr, ptr %4, align 8
  %42 = getelementptr inbounds i8, ptr %41, i64 3
  %43 = load i8, ptr %42, align 1
  %44 = zext i8 %43 to i32
  %45 = getelementptr inbounds [5 x i8], ptr @.str, i64 0, i64 3
  %46 = load i8, ptr %45, align 1
  %47 = sext i8 %46 to i32
  %48 = icmp eq i32 %44, %47
  br i1 %48, label %49, label %76

49:                                               ; preds = %40
  %50 = load ptr, ptr %4, align 8
  %51 = getelementptr inbounds i8, ptr %50, i64 4
  %52 = call noundef i32 @_ZL7ttULONGPKh(ptr noundef %51)
  %53 = icmp eq i32 %52, 65536
  br i1 %53, label %59, label %54

54:                                               ; preds = %49
  %55 = load ptr, ptr %4, align 8
  %56 = getelementptr inbounds i8, ptr %55, i64 4
  %57 = call noundef i32 @_ZL7ttULONGPKh(ptr noundef %56)
  %58 = icmp eq i32 %57, 131072
  br i1 %58, label %59, label %75

59:                                               ; preds = %54, %49
  %60 = load ptr, ptr %4, align 8
  %61 = getelementptr inbounds i8, ptr %60, i64 8
  %62 = call noundef i32 @_ZL6ttLONGPKh(ptr noundef %61)
  store i32 %62, ptr %6, align 4
  %63 = load i32, ptr %5, align 4
  %64 = load i32, ptr %6, align 4
  %65 = icmp sge i32 %63, %64
  br i1 %65, label %66, label %67

66:                                               ; preds = %59
  store i32 -1, ptr %3, align 4
  br label %77

67:                                               ; preds = %59
  %68 = load ptr, ptr %4, align 8
  %69 = getelementptr inbounds i8, ptr %68, i64 12
  %70 = load i32, ptr %5, align 4
  %71 = mul nsw i32 %70, 4
  %72 = sext i32 %71 to i64
  %73 = getelementptr inbounds i8, ptr %69, i64 %72
  %74 = call noundef i32 @_ZL7ttULONGPKh(ptr noundef %73)
  store i32 %74, ptr %3, align 4
  br label %77

75:                                               ; preds = %54
  br label %76

76:                                               ; preds = %75, %40, %31, %22, %14
  store i32 -1, ptr %3, align 4
  br label %77

77:                                               ; preds = %76, %67, %66, %10
  %78 = load i32, ptr %3, align 4
  ret i32 %78
}