; Function Attrs: mustprogress nofree norecurse nosync nounwind willreturn memory(argmem: read) uwtable
define dso_local i32 @stbtt_GetFontOffsetForIndex(ptr noundef readonly captures(none) %0, i32 noundef %1) local_unnamed_addr #0 {
  %3 = load i8, ptr %0, align 1
  switch i8 %3, label %_ZL13stbtt__isfontPKh.exit.thread18 [
    i8 49, label %4
    i8 116, label %16
    i8 79, label %27
    i8 0, label %39
  ]

4:                                                ; preds = %2
  %5 = getelementptr inbounds nuw i8, ptr %0, i64 1
  %6 = load i8, ptr %5, align 1
  %7 = icmp eq i8 %6, 0
  br i1 %7, label %8, label %_ZL13stbtt__isfontPKh.exit.thread18

8:                                                ; preds = %4
  %9 = getelementptr inbounds nuw i8, ptr %0, i64 2
  %10 = load i8, ptr %9, align 1
  %11 = icmp eq i8 %10, 0
  br i1 %11, label %12, label %_ZL13stbtt__isfontPKh.exit.thread18

12:                                               ; preds = %8
  %13 = getelementptr inbounds nuw i8, ptr %0, i64 3
  %14 = load i8, ptr %13, align 1
  %15 = icmp eq i8 %14, 0
  br i1 %15, label %51, label %_ZL13stbtt__isfontPKh.exit.thread18

16:                                               ; preds = %2
  %17 = getelementptr inbounds nuw i8, ptr %0, i64 1
  %18 = load i8, ptr %17, align 1
  switch i8 %18, label %_ZL13stbtt__isfontPKh.exit.thread18 [
    i8 121, label %19
    i8 116, label %54
  ]

19:                                               ; preds = %16
  %20 = getelementptr inbounds nuw i8, ptr %0, i64 2
  %21 = load i8, ptr %20, align 1
  %22 = icmp eq i8 %21, 112
  br i1 %22, label %23, label %_ZL13stbtt__isfontPKh.exit.thread18

23:                                               ; preds = %19
  %24 = getelementptr inbounds nuw i8, ptr %0, i64 3
  %25 = load i8, ptr %24, align 1
  %26 = icmp eq i8 %25, 49
  br i1 %26, label %51, label %_ZL13stbtt__isfontPKh.exit.thread18

27:                                               ; preds = %2
  %28 = getelementptr inbounds nuw i8, ptr %0, i64 1
  %29 = load i8, ptr %28, align 1
  %30 = icmp eq i8 %29, 84
  br i1 %30, label %31, label %_ZL13stbtt__isfontPKh.exit.thread18

31:                                               ; preds = %27
  %32 = getelementptr inbounds nuw i8, ptr %0, i64 2
  %33 = load i8, ptr %32, align 1
  %34 = icmp eq i8 %33, 84
  br i1 %34, label %35, label %_ZL13stbtt__isfontPKh.exit.thread18

35:                                               ; preds = %31
  %36 = getelementptr inbounds nuw i8, ptr %0, i64 3
  %37 = load i8, ptr %36, align 1
  %38 = icmp eq i8 %37, 79
  br i1 %38, label %51, label %_ZL13stbtt__isfontPKh.exit.thread18

39:                                               ; preds = %2
  %40 = getelementptr inbounds nuw i8, ptr %0, i64 1
  %41 = load i8, ptr %40, align 1
  %42 = icmp eq i8 %41, 1
  br i1 %42, label %43, label %_ZL13stbtt__isfontPKh.exit.thread18

43:                                               ; preds = %39
  %44 = getelementptr inbounds nuw i8, ptr %0, i64 2
  %45 = load i8, ptr %44, align 1
  %46 = icmp eq i8 %45, 0
  br i1 %46, label %47, label %_ZL13stbtt__isfontPKh.exit.thread18

47:                                               ; preds = %43
  %48 = getelementptr inbounds nuw i8, ptr %0, i64 3
  %49 = load i8, ptr %48, align 1
  %50 = icmp eq i8 %49, 0
  br i1 %50, label %51, label %_ZL13stbtt__isfontPKh.exit.thread18

51:                                               ; preds = %12, %23, %35, %47
  %52 = icmp ne i32 %1, 0
  %53 = sext i1 %52 to i32
  br label %_ZL13stbtt__isfontPKh.exit.thread18

54:                                               ; preds = %16
  %55 = getelementptr inbounds nuw i8, ptr %0, i64 2
  %56 = load i8, ptr %55, align 1
  %57 = icmp eq i8 %56, 99
  br i1 %57, label %58, label %_ZL13stbtt__isfontPKh.exit.thread18

58:                                               ; preds = %54
  %59 = getelementptr inbounds nuw i8, ptr %0, i64 3
  %60 = load i8, ptr %59, align 1
  %61 = icmp eq i8 %60, 102
  br i1 %61, label %62, label %_ZL13stbtt__isfontPKh.exit.thread18

62:                                               ; preds = %58
  %63 = getelementptr inbounds nuw i8, ptr %0, i64 4
  %64 = load i8, ptr %63, align 1
  %65 = zext i8 %64 to i32
  %66 = shl nuw i32 %65, 24
  %67 = getelementptr inbounds nuw i8, ptr %0, i64 5
  %68 = load i8, ptr %67, align 1
  %69 = zext i8 %68 to i32
  %70 = shl nuw nsw i32 %69, 16
  %71 = or disjoint i32 %70, %66
  %72 = getelementptr inbounds nuw i8, ptr %0, i64 6
  %73 = load i8, ptr %72, align 1
  %74 = zext i8 %73 to i32
  %75 = shl nuw nsw i32 %74, 8
  %76 = or disjoint i32 %71, %75
  %77 = getelementptr inbounds nuw i8, ptr %0, i64 7
  %78 = load i8, ptr %77, align 1
  %79 = zext i8 %78 to i32
  %80 = or disjoint i32 %76, %79
  switch i32 %80, label %_ZL13stbtt__isfontPKh.exit.thread18 [
    i32 65536, label %81
    i32 131072, label %81
  ]

81:                                               ; preds = %62, %62
  %82 = getelementptr inbounds nuw i8, ptr %0, i64 8
  %83 = load i8, ptr %82, align 1
  %84 = zext i8 %83 to i32
  %85 = shl nuw i32 %84, 24
  %86 = getelementptr inbounds nuw i8, ptr %0, i64 9
  %87 = load i8, ptr %86, align 1
  %88 = zext i8 %87 to i32
  %89 = shl nuw nsw i32 %88, 16
  %90 = or disjoint i32 %89, %85
  %91 = getelementptr inbounds nuw i8, ptr %0, i64 10
  %92 = load i8, ptr %91, align 1
  %93 = zext i8 %92 to i32
  %94 = shl nuw nsw i32 %93, 8
  %95 = or disjoint i32 %90, %94
  %96 = getelementptr inbounds nuw i8, ptr %0, i64 11
  %97 = load i8, ptr %96, align 1
  %98 = zext i8 %97 to i32
  %99 = or disjoint i32 %95, %98
  %.not14 = icmp slt i32 %1, %99
  br i1 %.not14, label %100, label %_ZL13stbtt__isfontPKh.exit.thread18

100:                                              ; preds = %81
  %101 = getelementptr inbounds nuw i8, ptr %0, i64 12
  %102 = shl nsw i32 %1, 2
  %103 = sext i32 %102 to i64
  %104 = getelementptr inbounds i8, ptr %101, i64 %103
  %105 = load i8, ptr %104, align 1
  %106 = zext i8 %105 to i32
  %107 = shl nuw i32 %106, 24
  %108 = getelementptr inbounds nuw i8, ptr %104, i64 1
  %109 = load i8, ptr %108, align 1
  %110 = zext i8 %109 to i32
  %111 = shl nuw nsw i32 %110, 16
  %112 = or disjoint i32 %111, %107
  %113 = getelementptr inbounds nuw i8, ptr %104, i64 2
  %114 = load i8, ptr %113, align 1
  %115 = zext i8 %114 to i32
  %116 = shl nuw nsw i32 %115, 8
  %117 = or disjoint i32 %112, %116
  %118 = getelementptr inbounds nuw i8, ptr %104, i64 3
  %119 = load i8, ptr %118, align 1
  %120 = zext i8 %119 to i32
  %121 = or disjoint i32 %117, %120
  br label %_ZL13stbtt__isfontPKh.exit.thread18

_ZL13stbtt__isfontPKh.exit.thread18:              ; preds = %16, %23, %19, %62, %2, %4, %8, %12, %27, %31, %35, %39, %43, %47, %54, %58, %81, %100, %51
  %.0 = phi i32 [ %53, %51 ], [ %121, %100 ], [ -1, %81 ], [ -1, %58 ], [ -1, %54 ], [ -1, %47 ], [ -1, %43 ], [ -1, %39 ], [ -1, %35 ], [ -1, %31 ], [ -1, %27 ], [ -1, %12 ], [ -1, %8 ], [ -1, %4 ], [ -1, %2 ], [ -1, %62 ], [ -1, %19 ], [ -1, %23 ], [ -1, %16 ]
  ret i32 %.0
}